target datalayout = "e-m:e-p270:32:32-p271:32:32-p272:64:64-i64:64-i128:128-f80:128-n8:16:32:64-S128"
target triple = "x86_64-pc-linux-gnu"

%struct.JNINativeInterface_ = type { ptr, ptr, ptr, ptr, ptr, ptr, ptr, ptr, ptr, ptr, ptr, ptr, ptr, ptr, ptr, ptr, ptr, ptr, ptr, ptr, ptr, ptr, ptr, ptr, ptr, ptr, ptr, ptr, ptr, ptr, ptr, ptr, ptr, ptr, ptr, ptr, ptr, ptr, ptr, ptr, ptr, ptr, ptr, ptr, ptr, ptr, ptr, ptr, ptr, ptr, ptr, ptr, ptr, ptr, ptr, ptr, ptr, ptr, ptr, ptr, ptr, ptr, ptr, ptr, ptr, ptr, ptr, ptr, ptr, ptr, ptr, ptr, ptr, ptr, ptr, ptr, ptr, ptr, ptr, ptr, ptr, ptr, ptr, ptr, ptr, ptr, ptr, ptr, ptr, ptr, ptr, ptr, ptr, ptr, ptr, ptr, ptr, ptr, ptr, ptr, ptr, ptr, ptr, ptr, ptr, ptr, ptr, ptr, ptr, ptr, ptr, ptr, ptr, ptr, ptr, ptr, ptr, ptr, ptr, ptr, ptr, ptr, ptr, ptr, ptr, ptr, ptr, ptr, ptr, ptr, ptr, ptr, ptr, ptr, ptr, ptr, ptr, ptr, ptr, ptr, ptr, ptr, ptr, ptr, ptr, ptr, ptr, ptr, ptr, ptr, ptr, ptr, ptr, ptr, ptr, ptr, ptr, ptr, ptr, ptr, ptr, ptr, ptr, ptr, ptr, ptr, ptr, ptr, ptr, ptr, ptr, ptr, ptr, ptr, ptr, ptr, ptr, ptr, ptr, ptr, ptr, ptr, ptr, ptr, ptr, ptr, ptr, ptr, ptr, ptr, ptr, ptr, ptr, ptr, ptr, ptr, ptr, ptr, ptr, ptr, ptr, ptr, ptr, ptr, ptr, ptr, ptr, ptr, ptr, ptr, ptr, ptr, ptr, ptr, ptr, ptr, ptr, ptr, ptr, ptr, ptr, ptr, ptr, ptr, ptr, ptr, ptr, ptr, ptr, ptr, ptr, ptr, ptr, ptr, ptr }
%struct.CK_FUNCTION_LIST = type { %struct.CK_VERSION, ptr, ptr, ptr, ptr, ptr, ptr, ptr, ptr, ptr, ptr, ptr, ptr, ptr, ptr, ptr, ptr, ptr, ptr, ptr, ptr, ptr, ptr, ptr, ptr, ptr, ptr, ptr, ptr, ptr, ptr, ptr, ptr, ptr, ptr, ptr, ptr, ptr, ptr, ptr, ptr, ptr, ptr, ptr, ptr, ptr, ptr, ptr, ptr, ptr, ptr, ptr, ptr, ptr, ptr, ptr, ptr, ptr, ptr, ptr, ptr, ptr, ptr, ptr, ptr, ptr, ptr, ptr, ptr }
%struct.CK_VERSION = type { i8, i8 }

; Function Attrs: nounwind uwtable
define void @Java_sun_security_pkcs11_wrapper_PKCS11_C_1GCMEncryptInitWithRetry(ptr noundef %0, ptr noundef %1, i64 noundef %2, ptr noundef %3, i64 noundef %4, i8 noundef zeroext %5) #0 {
  %7 = alloca ptr, align 8
  %8 = alloca ptr, align 8
  %9 = alloca i64, align 8
  %10 = alloca ptr, align 8
  %11 = alloca i64, align 8
  %12 = alloca i8, align 1
  %13 = alloca i64, align 8
  %14 = alloca ptr, align 8
  %15 = alloca i64, align 8
  %16 = alloca i8, align 1
  %17 = alloca i64, align 8
  %18 = alloca ptr, align 8
  store ptr %0, ptr %7, align 8
  store ptr %1, ptr %8, align 8
  store i64 %2, ptr %9, align 8
  store ptr %3, ptr %10, align 8
  store i64 %4, ptr %11, align 8
  store i8 %5, ptr %12, align 1
  store ptr null, ptr %14, align 8
  store i8 0, ptr %16, align 1
  store i64 1, ptr %17, align 8
  %19 = load ptr, ptr %7, align 8
  %20 = load ptr, ptr %8, align 8
  %21 = call ptr @getFunctionList(ptr noundef %19, ptr noundef %20)
  store ptr %21, ptr %18, align 8
  %22 = load ptr, ptr %18, align 8
  %23 = icmp eq ptr %22, null
  br i1 %23, label %24, label %25

24:                                               ; preds = %6
  br label %88

25:                                               ; preds = %6
  %26 = load i64, ptr %9, align 8
  store i64 %26, ptr %13, align 8
  %27 = load i64, ptr %11, align 8
  store i64 %27, ptr %15, align 8
  %28 = load ptr, ptr %7, align 8
  %29 = load ptr, ptr %10, align 8
  %30 = call ptr @jMechanismToCKMechanismPtr(ptr noundef %28, ptr noundef %29)
  store ptr %30, ptr %14, align 8
  %31 = load ptr, ptr %7, align 8
  %32 = load ptr, ptr %31, align 8
  %33 = getelementptr inbounds %struct.JNINativeInterface_, ptr %32, i32 0, i32 228
  %34 = load ptr, ptr %33, align 8
  %35 = load ptr, ptr %7, align 8
  %36 = call zeroext i8 %34(ptr noundef %35)
  %37 = icmp ne i8 %36, 0
  br i1 %37, label %38, label %39

38:                                               ; preds = %25
  br label %88

39:                                               ; preds = %25
  %40 = load i8, ptr %12, align 1
  %41 = icmp ne i8 %40, 0
  br i1 %41, label %47, label %42

42:                                               ; preds = %39
  %43 = load ptr, ptr %7, align 8
  %44 = load ptr, ptr %14, align 8
  %45 = call ptr @updateGCMParams(ptr noundef %43, ptr noundef %44)
  %46 = icmp ne ptr %45, null
  br label %47

47:                                               ; preds = %42, %39
  %48 = phi i1 [ false, %39 ], [ %46, %42 ]
  %49 = zext i1 %48 to i32
  %50 = trunc i32 %49 to i8
  store i8 %50, ptr %16, align 1
  %51 = load ptr, ptr %18, align 8
  %52 = getelementptr inbounds %struct.CK_FUNCTION_LIST, ptr %51, i32 0, i32 30
  %53 = load ptr, ptr %52, align 8
  %54 = load i64, ptr %13, align 8
  %55 = load ptr, ptr %14, align 8
  %56 = load i64, ptr %15, align 8
  %57 = call i64 %53(i64 noundef %54, ptr noundef %55, i64 noundef %56)
  store i64 %57, ptr %17, align 8
  %58 = load i64, ptr %17, align 8
  %59 = icmp eq i64 %58, 7
  br i1 %59, label %63, label %60

60:                                               ; preds = %47
  %61 = load i64, ptr %17, align 8
  %62 = icmp eq i64 %61, 113
  br i1 %62, label %63, label %81

63:                                               ; preds = %60, %47
  %64 = load i8, ptr %16, align 1
  %65 = zext i8 %64 to i32
  %66 = icmp ne i32 %65, 0
  br i1 %66, label %67, label %80

67:                                               ; preds = %63
  %68 = load ptr, ptr %7, align 8
  %69 = load ptr, ptr %14, align 8
  %70 = call ptr @updateGCMParams(ptr noundef %68, ptr noundef %69)
  %71 = icmp ne ptr %70, null
  br i1 %71, label %72, label %80

72:                                               ; preds = %67
  %73 = load ptr, ptr %18, align 8
  %74 = getelementptr inbounds %struct.CK_FUNCTION_LIST, ptr %73, i32 0, i32 30
  %75 = load ptr, ptr %74, align 8
  %76 = load i64, ptr %13, align 8
  %77 = load ptr, ptr %14, align 8
  %78 = load i64, ptr %15, align 8
  %79 = call i64 %75(i64 noundef %76, ptr noundef %77, i64 noundef %78)
  store i64 %79, ptr %17, align 8
  br label %80

80:                                               ; preds = %72, %67, %63
  br label %81

81:                                               ; preds = %80, %60
  %82 = load ptr, ptr %14, align 8
  call void @freeCKMechanismPtr(ptr noundef %82)
  %83 = load ptr, ptr %7, align 8
  %84 = load i64, ptr %17, align 8
  %85 = call i64 @ckAssertReturnValueOK(ptr noundef %83, i64 noundef %84)
  %86 = icmp ne i64 %85, 0
  br i1 %86, label %87, label %88

87:                                               ; preds = %81
  br label %88

88:                                               ; preds = %87, %81, %38, %24
  ret void
}