; Function Attrs: nounwind uwtable
define void @Java_sun_security_pkcs11_wrapper_PKCS11_C_1GCMEncryptInitWithRetry(ptr noundef %0, ptr noundef %1, i64 noundef %2, ptr noundef %3, i64 noundef %4, i8 noundef zeroext %5) local_unnamed_addr #0 {
  %7 = tail call ptr @getFunctionList(ptr noundef %0, ptr noundef %1) #2
  %8 = icmp eq ptr %7, null
  br i1 %8, label %33, label %9

9:                                                ; preds = %6
  %10 = tail call ptr @jMechanismToCKMechanismPtr(ptr noundef %0, ptr noundef %3) #2
  %11 = load ptr, ptr %0, align 8
  %12 = getelementptr inbounds i8, ptr %11, i64 1824
  %13 = load ptr, ptr %12, align 8
  %14 = tail call zeroext i8 %13(ptr noundef nonnull %0) #2
  %.not = icmp eq i8 %14, 0
  br i1 %.not, label %15, label %33

15:                                               ; preds = %9
  %.not32 = icmp eq i8 %5, 0
  br i1 %.not32, label %16, label %19

16:                                               ; preds = %15
  %17 = tail call ptr @updateGCMParams(ptr noundef nonnull %0, ptr noundef %10) #2
  %18 = icmp ne ptr %17, null
  br label %19

19:                                               ; preds = %16, %15
  %20 = phi i1 [ false, %15 ], [ %18, %16 ]
  %21 = getelementptr inbounds i8, ptr %7, i64 240
  %22 = load ptr, ptr %21, align 8
  %23 = tail call i64 %22(i64 noundef %2, ptr noundef %10, i64 noundef %4) #2
  %24 = icmp eq i64 %23, 7
  %25 = icmp eq i64 %23, 113
  %or.cond = or i1 %24, %25
  %or.cond4 = select i1 %or.cond, i1 %20, i1 false
  br i1 %or.cond4, label %26, label %31

26:                                               ; preds = %19
  %27 = tail call ptr @updateGCMParams(ptr noundef nonnull %0, ptr noundef %10) #2
  %.not33 = icmp eq ptr %27, null
  br i1 %.not33, label %31, label %28

28:                                               ; preds = %26
  %29 = load ptr, ptr %21, align 8
  %30 = tail call i64 %29(i64 noundef %2, ptr noundef %10, i64 noundef %4) #2
  br label %31

31:                                               ; preds = %26, %28, %19
  %.0 = phi i64 [ %30, %28 ], [ %23, %26 ], [ %23, %19 ]
  tail call void @freeCKMechanismPtr(ptr noundef %10) #2
  %32 = tail call i64 @ckAssertReturnValueOK(ptr noundef nonnull %0, i64 noundef %.0) #2
  br label %33

33:                                               ; preds = %31, %9, %6
  ret void
}